; Function Attrs: mustprogress uwtable
define void @faiss_IndexIVF_invlists_get_ids(ptr noundef readonly captures(none) %0, i64 noundef %1, ptr noundef writeonly captures(none) %2) local_unnamed_addr #16 {
  %4 = getelementptr inbounds nuw i8, ptr %0, i64 144
  %5 = load ptr, ptr %4, align 8, !tbaa !41
  %6 = load ptr, ptr %5, align 8, !tbaa !3
  %7 = getelementptr inbounds nuw i8, ptr %6, i64 32
  %8 = load ptr, ptr %7, align 8
  %9 = tail call noundef ptr %8(ptr noundef nonnull align 8 dereferenceable(25) %5, i64 noundef %1)
  %10 = load ptr, ptr %4, align 8, !tbaa !41
  %11 = load ptr, ptr %10, align 8, !tbaa !3
  %12 = getelementptr inbounds nuw i8, ptr %11, i64 16
  %13 = load ptr, ptr %12, align 8
  %14 = tail call noundef i64 %13(ptr noundef nonnull align 8 dereferenceable(25) %10, i64 noundef %1)
  %15 = shl i64 %14, 3
  tail call void @llvm.memcpy.p0.p0.i64(ptr align 8 %2, ptr align 8 %9, i64 %15, i1 false)
  ret void
}